; Function Attrs: nounwind uwtable
define void @duckdb_je_tcache_flush(ptr noundef %0) local_unnamed_addr #0 {
  %2 = getelementptr inbounds nuw i8, ptr %0, i64 864
  %3 = load ptr, ptr %2, align 8, !tbaa !42
  %4 = getelementptr i8, ptr %3, i64 48
  %.val1820.i = load i32, ptr %4, align 8, !tbaa !41
  %.not.i = icmp eq i32 %.val1820.i, 0
  br i1 %.not.i, label %tcache_flush_cache.exit, label %.lr.ph.i

.lr.ph.i:                                         ; preds = %1
  %5 = getelementptr inbounds nuw i8, ptr %0, i64 872
  br label %6

6:                                                ; preds = %14, %.lr.ph.i
  %indvars.iv.i = phi i64 [ 0, %.lr.ph.i ], [ %indvars.iv.next.i, %14 ]
  %7 = getelementptr inbounds nuw [73 x %struct.cache_bin_s], ptr %5, i64 0, i64 %indvars.iv.i
  %.val.i = load ptr, ptr %7, align 8, !tbaa !32
  %8 = icmp eq ptr %.val.i, @duckdb_je_disabled_bin
  br i1 %8, label %14, label %9

9:                                                ; preds = %6
  %10 = icmp samesign ult i64 %indvars.iv.i, 36
  %11 = trunc nuw i64 %indvars.iv.i to i32
  br i1 %10, label %12, label %13

12:                                               ; preds = %9
  tail call void @duckdb_je_tcache_bin_flush_small(ptr noundef nonnull %0, ptr noundef nonnull %2, ptr noundef nonnull %7, i32 noundef %11, i32 noundef 0)
  br label %14

13:                                               ; preds = %9
  tail call void @duckdb_je_tcache_bin_flush_large(ptr noundef nonnull %0, ptr noundef nonnull %2, ptr noundef nonnull %7, i32 noundef %11, i32 noundef 0)
  br label %14

14:                                               ; preds = %13, %12, %6
  %indvars.iv.next.i = add nuw nsw i64 %indvars.iv.i, 1
  %.val18.i = load i32, ptr %4, align 8, !tbaa !41
  %15 = zext i32 %.val18.i to i64
  %16 = icmp samesign ult i64 %indvars.iv.next.i, %15
  br i1 %16, label %6, label %tcache_flush_cache.exit

tcache_flush_cache.exit:                          ; preds = %14, %1
  ret void
}